target datalayout = "e-m:e-p270:32:32-p271:32:32-p272:64:64-i64:64-i128:128-f80:128-n8:16:32:64-S128"
target triple = "x86_64-pc-linux-gnu"

; Function Attrs: mustprogress uwtable
define noundef i32 @_ZN5Yosys8readsomeERSiPci(ptr noundef nonnull align 8 dereferenceable(16) %0, ptr noundef %1, i32 noundef %2) #4 {
  %4 = alloca ptr, align 8
  %5 = alloca ptr, align 8
  %6 = alloca i32, align 4
  %7 = alloca i32, align 4
  %8 = alloca i32, align 4
  store ptr %0, ptr %4, align 8, !tbaa !35
  store ptr %1, ptr %5, align 8, !tbaa !33
  store i32 %2, ptr %6, align 4, !tbaa !21
  call void @llvm.lifetime.start.p0(i64 4, ptr %7) #3
  %9 = load ptr, ptr %4, align 8, !tbaa !35
  %10 = load ptr, ptr %5, align 8, !tbaa !33
  %11 = load i32, ptr %6, align 4, !tbaa !21
  %12 = sext i32 %11 to i64
  %13 = call noundef i64 @_ZNSi8readsomeEPcl(ptr noundef nonnull align 8 dereferenceable(16) %9, ptr noundef %10, i64 noundef %12)
  %14 = trunc i64 %13 to i32
  store i32 %14, ptr %7, align 4, !tbaa !21
  %15 = load i32, ptr %7, align 4, !tbaa !21
  %16 = icmp eq i32 %15, 0
  br i1 %16, label %17, label %27

17:                                               ; preds = %3
  call void @llvm.lifetime.start.p0(i64 4, ptr %8) #3
  %18 = load ptr, ptr %4, align 8, !tbaa !35
  %19 = call noundef i32 @_ZNSi3getEv(ptr noundef nonnull align 8 dereferenceable(16) %18)
  store i32 %19, ptr %8, align 4, !tbaa !21
  %20 = load i32, ptr %8, align 4, !tbaa !21
  %21 = icmp ne i32 %20, -1
  br i1 %21, label %22, label %26

22:                                               ; preds = %17
  %23 = load i32, ptr %8, align 4, !tbaa !21
  %24 = trunc i32 %23 to i8
  %25 = load ptr, ptr %5, align 8, !tbaa !33
  store i8 %24, ptr %25, align 1, !tbaa !37
  store i32 1, ptr %7, align 4, !tbaa !21
  br label %26

26:                                               ; preds = %22, %17
  call void @llvm.lifetime.end.p0(i64 4, ptr %8) #3
  br label %27

27:                                               ; preds = %26, %3
  %28 = load i32, ptr %7, align 4, !tbaa !21
  call void @llvm.lifetime.end.p0(i64 4, ptr %7) #3
  ret i32 %28
}