; Function Attrs: mustprogress uwtable
define noundef i32 @_ZN5Yosys8readsomeERSiPci(ptr noundef nonnull align 8 dereferenceable(16) %0, ptr noundef %1, i32 noundef %2) local_unnamed_addr #5 {
  %4 = sext i32 %2 to i64
  %5 = tail call noundef i64 @_ZNSi8readsomeEPcl(ptr noundef nonnull align 8 dereferenceable(16) %0, ptr noundef %1, i64 noundef %4)
  %6 = trunc i64 %5 to i32
  %7 = icmp eq i32 %6, 0
  br i1 %7, label %8, label %12

8:                                                ; preds = %3
  %9 = tail call noundef i32 @_ZNSi3getEv(ptr noundef nonnull align 8 dereferenceable(16) %0)
  %.not = icmp eq i32 %9, -1
  br i1 %.not, label %12, label %10

10:                                               ; preds = %8
  %11 = trunc i32 %9 to i8
  store i8 %11, ptr %1, align 1, !tbaa !43
  br label %12

12:                                               ; preds = %8, %10, %3
  %.0 = phi i32 [ %6, %3 ], [ 1, %10 ], [ 0, %8 ]
  ret i32 %.0
}